(dp0
S'131'
p1
I37
sS'130'
p2
I36
sS'24'
p3
I49
sS'25'
p4
I50
sS'26'
p5
I51
sS'27'
p6
I52
sS'20'
p7
I45
sS'21'
p8
I46
sS'22'
p9
I47
sS'23'
p10
I48
sS'28'
p11
I53
sS'29'
p12
I54
sS'0'
p13
I0
sS'4'
p14
I66
sS'8'
p15
I110
sS'87'
p16
I118
sS'120'
p17
I25
sS'121'
p18
I26
sS'122'
p19
I27
sS'123'
p20
I28
sS'124'
p21
I29
sS'125'
p22
I30
sS'126'
p23
I31
sS'127'
p24
I32
sS'128'
p25
I33
sS'129'
p26
I34
sS'59'
p27
I87
sS'58'
p28
I86
sS'55'
p29
I83
sS'54'
p30
I82
sS'57'
p31
I85
sS'56'
p32
I84
sS'51'
p33
I79
sS'50'
p34
I78
sS'53'
p35
I81
sS'52'
p36
I80
sS'115'
p37
I19
sS'114'
p38
I18
sS'117'
p39
I21
sS'116'
p40
I20
sS'111'
p41
I15
sS'110'
p42
I14
sS'113'
p43
I17
sS'112'
p44
I16
sS'82'
p45
I113
sS'83'
p46
I114
sS'80'
p47
I111
sS'81'
p48
I112
sS'119'
p49
I23
sS'118'
p50
I22
sS'84'
p51
I115
sS'85'
p52
I116
sS'3'
p53
I55
sS'7'
p54
I99
sS'108'
p55
I11
sS'109'
p56
I12
sS'102'
p57
I5
sS'103'
p58
I6
sS'100'
p59
I3
sS'101'
p60
I4
sS'106'
p61
I9
sS'107'
p62
I10
sS'104'
p63
I7
sS'105'
p64
I8
sS'39'
p65
I65
sS'38'
p66
I64
sS'33'
p67
I59
sS'32'
p68
I58
sS'31'
p69
I57
sS'30'
p70
I56
sS'37'
p71
I63
sS'36'
p72
I62
sS'35'
p73
I61
sS'34'
p74
I60
sS'86'
p75
I117
sS'60'
p76
I89
sS'61'
p77
I90
sS'62'
p78
I91
sS'63'
p79
I92
sS'64'
p80
I93
sS'65'
p81
I94
sS'66'
p82
I95
sS'67'
p83
I96
sS'68'
p84
I97
sS'69'
p85
I98
sS'2'
p86
I44
sS'6'
p87
I88
sS'99'
p88
I131
sS'98'
p89
I130
sS'91'
p90
I123
sS'90'
p91
I122
sS'93'
p92
I125
sS'92'
p93
I124
sS'95'
p94
I127
sS'94'
p95
I126
sS'97'
p96
I129
sS'96'
p97
I128
sS'11'
p98
I13
sS'10'
p99
I2
sS'13'
p100
I35
sS'12'
p101
I24
sS'15'
p102
I39
sS'14'
p103
I38
sS'17'
p104
I41
sS'16'
p105
I40
sS'19'
p106
I43
sS'18'
p107
I42
sS'88'
p108
I119
sS'89'
p109
I120
sS'48'
p110
I75
sS'49'
p111
I76
sS'46'
p112
I73
sS'47'
p113
I74
sS'44'
p114
I71
sS'45'
p115
I72
sS'42'
p116
I69
sS'43'
p117
I70
sS'40'
p118
I67
sS'41'
p119
I68
sS'1'
p120
I1
sS'5'
p121
I77
sS'9'
p122
I121
sS'77'
p123
I107
sS'76'
p124
I106
sS'75'
p125
I105
sS'74'
p126
I104
sS'73'
p127
I103
sS'72'
p128
I102
sS'71'
p129
I101
sS'70'
p130
I100
sS'79'
p131
I109
sS'78'
p132
I108
s.